(lp0
(dp1
Vdomain
p2
V.linkedin.com
p3
sVsecure
p4
I00
sVvalue
p5
VCwEAAAFgVMVVzYTUuIdvoL2S1KduMSQ6UkV92LnhUnWquRp94B_V5ZcJ4kARAyYsFwSMiiuVa7-z_Rh8tJmVGVBQgoTmfzhG6Rq2qiVYl99-ELdhN0ovsq2uubA686COg8aRzUZqH8DpSj1QqRDQEUmyTN9zoXUJn4K8643WIGjYAK9QWShHqvUU1zIt0ZzqnyPY1mXLAAOQFPb1CEVWqYuqDoVbALnVa5DnQh-u407ryk0mmCg_lvoPtuvx-8mKEjjwLK5FIxyR0Lj1RNQCVjZ2AyXcbT_i6hfIeUMnUeQ3QE_UmPymwpeG1LU_QOerR22RbQ-QCjTX0XEK5FUT_2FPipMPzwQLaLOjNXii-HWtPhA-eZSIJ8D1e4t43XsF5Eg3unjomYmm-ewqZmqHB9QGSOz0bHePyuRJkyyYuvDctWXoB6D5kEISEsJwVeSBSSkoPz-3AbemOpF7Ys_dzlOhklZMnU_iGkT_7GykbWC3G0JBltLGwUXrxRy5uuYsUNsF
p6
sVexpiry
p7
F1515842708.162702
sVpath
p8
V/
p9
sVhttpOnly
p10
I00
sVname
p11
V_lipt
p12
sa(dp13
Vdomain
p14
V.linkedin.com
p15
sVsecure
p16
I00
sVvalue
p17
V1
p18
sVexpiry
p19
I1513251305
sVpath
p20
g9
sVhttpOnly
p21
I00
sVname
p22
V_gat
p23
sa(dp24
Vdomain
p25
V.linkedin.com
p26
sVsecure
p27
I00
sVvalue
p28
Vs=1513250704026&r=https%3A%2F%2Fwww.linkedin.com%2Fuas%2Flogin
p29
sVexpiry
p30
I1513251304
sVpath
p31
g9
sVhttpOnly
p32
I00
sVname
p33
VRT
p34
sa(dp35
Vdomain
p36
V.linkedin.com
p37
sVsecure
p38
I00
sVvalue
p39
V"b=TB39:g=1196:u=254:i=1513250703:t=1513335722:s=AQEX06wUWdjdSqS68vHY85P5AonqvCgK"
p40
sVexpiry
p41
F1513335723.022079
sVpath
p42
g9
sVhttpOnly
p43
I00
sVname
p44
Vlidc
p45
sa(dp46
Vdomain
p47
V.linkedin.com
p48
sVsecure
p49
I00
sVvalue
p50
VGA1.2.1090764028.1513250706
p51
sVexpiry
p52
I1576322705
sVpath
p53
g9
sVhttpOnly
p54
I00
sVname
p55
V_ga
p56
sa(dp57
Vdomain
p58
V.www.linkedin.com
p59
sVsecure
p60
I01
sVvalue
p61
V"ajax:1172743072492315644"
p62
sVexpiry
p63
F1521026703.684657
sVpath
p64
g9
sVhttpOnly
p65
I00
sVname
p66
VJSESSIONID
p67
sa(dp68
Vdomain
p69
V.linkedin.com
p70
sVsecure
p71
I00
sVvalue
p72
Vtrue
p73
sVexpiry
p74
F1521026703.684513
sVpath
p75
g9
sVhttpOnly
p76
I00
sVname
p77
Vliap
p78
sa(dp79
Vdomain
p80
V.www.linkedin.com
p81
sVsecure
p82
I01
sVvalue
p83
VAQEDAQJQSScBkTlqAAABYFTFR9gAAAFgeNHL2E4ABDXyT92Zxs0reV0VHU_19FEVy8HV9NGn0-kB8UAz12T3Dp71XFRpWKBophGuSWLwD9xK-uZwREDEXWATcyyT_jnvd5Mg0gNbihM2meM0bLHE4v4I
p84
sVexpiry
p85
F1544786703.684302
sVpath
p86
g9
sVhttpOnly
p87
I01
sVname
p88
Vli_at
p89
sa(dp90
Vdomain
p91
V.www.linkedin.com
p92
sVsecure
p93
I00
sVvalue
p94
V"v=1&fkx9Y"
p95
sVexpiry
p96
F1521026703.683998
sVpath
p97
g9
sVhttpOnly
p98
I00
sVname
p99
Vsl
p100
sa(dp101
Vdomain
p102
V.linkedin.com
p103
sVsecure
p104
I00
sVvalue
p105
V"v=2&954654a9-1cd3-4193-8e38-a46b1e5e1e72"
p106
sVexpiry
p107
F1576364553.529759
sVpath
p108
g9
sVhttpOnly
p109
I00
sVname
p110
Vbcookie
p111
sa(dp112
Vdomain
p113
V.linkedin.com
p114
sVname
p115
Vlang
p116
sVvalue
p117
V"v=2&lang=en-us"
p118
sVpath
p119
g9
sVhttpOnly
p120
I00
sVsecure
p121
I00
sa(dp122
Vdomain
p123
V.www.linkedin.com
p124
sVsecure
p125
I01
sVvalue
p126
V"v=1&20171214112501119fb3db-9325-43fb-8e0b-28af5de70790AQHB3zhaI1LZqaU4embqnAGEsUmDYtDR"
p127
sVexpiry
p128
F1576364553.529826
sVpath
p129
g9
sVhttpOnly
p130
I01
sVname
p131
Vbscookie
p132
sa(dp133
Vdomain
p134
Vwww.linkedin.com
p135
sVsecure
p136
I00
sVvalue
p137
V"v=1&G"
p138
sVexpiry
p139
F1576322701.529661
sVpath
p140
g9
sVhttpOnly
p141
I00
sVname
p142
Vvisit
p143
sa.